ARM GAS  /tmp/ccGQIiFw.s 			page 1


   1              		.cpu cortex-m3
   2              		.arch armv7-m
   3              		.fpu softvfp
   4              		.eabi_attribute 20, 1
   5              		.eabi_attribute 21, 1
   6              		.eabi_attribute 23, 3
   7              		.eabi_attribute 24, 1
   8              		.eabi_attribute 25, 1
   9              		.eabi_attribute 26, 1
  10              		.eabi_attribute 30, 1
  11              		.eabi_attribute 34, 1
  12              		.eabi_attribute 18, 4
  13              		.file	"lv_init.c"
  14              		.text
  15              	.Ltext0:
  16              		.cfi_sections	.debug_frame
  17              		.file 1 "lvgl/src/lv_init.c"
  18              		.section	.text.lv_global_init,"ax",%progbits
  19              		.align	1
  20              		.syntax unified
  21              		.thumb
  22              		.thumb_func
  24              	lv_global_init:
  25              	.LVL0:
  26              	.LFB200:
   1:lvgl/src/lv_init.c **** /**
   2:lvgl/src/lv_init.c ****  * @file lv_init.c
   3:lvgl/src/lv_init.c ****  *
   4:lvgl/src/lv_init.c ****  */
   5:lvgl/src/lv_init.c **** 
   6:lvgl/src/lv_init.c **** /*********************
   7:lvgl/src/lv_init.c ****  *      INCLUDES
   8:lvgl/src/lv_init.c ****  *********************/
   9:lvgl/src/lv_init.c **** #include "misc/lv_timer_private.h"
  10:lvgl/src/lv_init.c **** #include "misc/lv_profiler_builtin_private.h"
  11:lvgl/src/lv_init.c **** #include "misc/lv_anim_private.h"
  12:lvgl/src/lv_init.c **** #include "draw/lv_image_decoder_private.h"
  13:lvgl/src/lv_init.c **** #include "draw/lv_draw_buf_private.h"
  14:lvgl/src/lv_init.c **** #include "core/lv_refr_private.h"
  15:lvgl/src/lv_init.c **** #include "core/lv_obj_style_private.h"
  16:lvgl/src/lv_init.c **** #include "core/lv_group_private.h"
  17:lvgl/src/lv_init.c **** #include "lv_init.h"
  18:lvgl/src/lv_init.c **** #include "core/lv_global.h"
  19:lvgl/src/lv_init.c **** #include "core/lv_obj.h"
  20:lvgl/src/lv_init.c **** #include "display/lv_display_private.h"
  21:lvgl/src/lv_init.c **** #include "indev/lv_indev_private.h"
  22:lvgl/src/lv_init.c **** #include "layouts/lv_layout_private.h"
  23:lvgl/src/lv_init.c **** #include "libs/bin_decoder/lv_bin_decoder.h"
  24:lvgl/src/lv_init.c **** #include "libs/bmp/lv_bmp.h"
  25:lvgl/src/lv_init.c **** #include "libs/ffmpeg/lv_ffmpeg.h"
  26:lvgl/src/lv_init.c **** #include "libs/freetype/lv_freetype.h"
  27:lvgl/src/lv_init.c **** #include "libs/fsdrv/lv_fsdrv.h"
  28:lvgl/src/lv_init.c **** #include "libs/gif/lv_gif.h"
  29:lvgl/src/lv_init.c **** #include "libs/tjpgd/lv_tjpgd.h"
  30:lvgl/src/lv_init.c **** #include "libs/libjpeg_turbo/lv_libjpeg_turbo.h"
  31:lvgl/src/lv_init.c **** #include "libs/lodepng/lv_lodepng.h"
  32:lvgl/src/lv_init.c **** #include "libs/libpng/lv_libpng.h"
ARM GAS  /tmp/ccGQIiFw.s 			page 2


  33:lvgl/src/lv_init.c **** #include "libs/libwebp/lv_libwebp.h"
  34:lvgl/src/lv_init.c **** #include "libs/tiny_ttf/lv_tiny_ttf.h"
  35:lvgl/src/lv_init.c **** #include "draw/lv_draw.h"
  36:lvgl/src/lv_init.c **** #include "misc/lv_async.h"
  37:lvgl/src/lv_init.c **** #include "misc/lv_fs_private.h"
  38:lvgl/src/lv_init.c **** #include "widgets/span/lv_span.h"
  39:lvgl/src/lv_init.c **** #include "themes/simple/lv_theme_simple.h"
  40:lvgl/src/lv_init.c **** #include "misc/lv_fs.h"
  41:lvgl/src/lv_init.c **** #include "osal/lv_os_private.h"
  42:lvgl/src/lv_init.c **** #include "debugging/sysmon/lv_sysmon_private.h"
  43:lvgl/src/lv_init.c **** #include "others/translation/lv_translation.h"
  44:lvgl/src/lv_init.c **** #include "xml/lv_xml.h"
  45:lvgl/src/lv_init.c **** #include "drivers/wayland/lv_wayland_private.h"
  46:lvgl/src/lv_init.c **** 
  47:lvgl/src/lv_init.c **** #if LV_USE_SVG
  48:lvgl/src/lv_init.c ****     #include "libs/svg/lv_svg_decoder.h"
  49:lvgl/src/lv_init.c **** #endif
  50:lvgl/src/lv_init.c **** 
  51:lvgl/src/lv_init.c **** #if LV_USE_NEMA_GFX
  52:lvgl/src/lv_init.c ****     #include "draw/nema_gfx/lv_draw_nema_gfx.h"
  53:lvgl/src/lv_init.c **** #endif
  54:lvgl/src/lv_init.c **** #if LV_USE_PXP
  55:lvgl/src/lv_init.c ****     #if LV_USE_DRAW_PXP || LV_USE_ROTATE_PXP
  56:lvgl/src/lv_init.c ****         #include "draw/nxp/pxp/lv_draw_pxp.h"
  57:lvgl/src/lv_init.c ****     #endif
  58:lvgl/src/lv_init.c **** #endif
  59:lvgl/src/lv_init.c **** #if LV_USE_G2D
  60:lvgl/src/lv_init.c ****     #if LV_USE_DRAW_G2D || LV_USE_ROTATE_G2D
  61:lvgl/src/lv_init.c ****         #include "draw/nxp/g2d/lv_draw_g2d.h"
  62:lvgl/src/lv_init.c ****     #endif
  63:lvgl/src/lv_init.c **** #endif
  64:lvgl/src/lv_init.c **** #if LV_USE_DRAW_DAVE2D
  65:lvgl/src/lv_init.c ****     #include "draw/renesas/dave2d/lv_draw_dave2d.h"
  66:lvgl/src/lv_init.c **** #endif
  67:lvgl/src/lv_init.c **** #if LV_USE_DRAW_SDL
  68:lvgl/src/lv_init.c ****     #include "draw/sdl/lv_draw_sdl.h"
  69:lvgl/src/lv_init.c **** #endif
  70:lvgl/src/lv_init.c **** #if LV_USE_DRAW_VG_LITE
  71:lvgl/src/lv_init.c ****     #include "draw/vg_lite/lv_draw_vg_lite.h"
  72:lvgl/src/lv_init.c **** #endif
  73:lvgl/src/lv_init.c **** #if LV_USE_DRAW_DMA2D
  74:lvgl/src/lv_init.c ****     #include "draw/dma2d/lv_draw_dma2d.h"
  75:lvgl/src/lv_init.c **** #endif
  76:lvgl/src/lv_init.c **** #if LV_USE_DRAW_OPENGLES
  77:lvgl/src/lv_init.c ****     #include "draw/opengles/lv_draw_opengles.h"
  78:lvgl/src/lv_init.c **** #endif
  79:lvgl/src/lv_init.c **** #if LV_USE_PPA
  80:lvgl/src/lv_init.c ****     #include "draw/espressif/ppa/lv_draw_ppa.h"
  81:lvgl/src/lv_init.c **** #endif
  82:lvgl/src/lv_init.c **** #if LV_USE_WINDOWS
  83:lvgl/src/lv_init.c ****     #include "drivers/windows/lv_windows_context.h"
  84:lvgl/src/lv_init.c **** #endif
  85:lvgl/src/lv_init.c **** #if LV_USE_UEFI
  86:lvgl/src/lv_init.c ****     #include "drivers/uefi/lv_uefi_context.h"
  87:lvgl/src/lv_init.c **** #endif
  88:lvgl/src/lv_init.c **** #if LV_USE_EVDEV
  89:lvgl/src/lv_init.c ****     #include "drivers/evdev/lv_evdev_private.h"
ARM GAS  /tmp/ccGQIiFw.s 			page 3


  90:lvgl/src/lv_init.c **** #endif
  91:lvgl/src/lv_init.c **** #if LV_USE_DRAW_EVE
  92:lvgl/src/lv_init.c ****     #include "draw/eve/lv_draw_eve.h"
  93:lvgl/src/lv_init.c **** #endif
  94:lvgl/src/lv_init.c **** 
  95:lvgl/src/lv_init.c **** /*********************
  96:lvgl/src/lv_init.c ****  *      DEFINES
  97:lvgl/src/lv_init.c ****  *********************/
  98:lvgl/src/lv_init.c **** #define lv_initialized  LV_GLOBAL_DEFAULT()->inited
  99:lvgl/src/lv_init.c **** #define lv_deinit_in_progress  LV_GLOBAL_DEFAULT()->deinit_in_progress
 100:lvgl/src/lv_init.c **** 
 101:lvgl/src/lv_init.c **** /**********************
 102:lvgl/src/lv_init.c ****  *      TYPEDEFS
 103:lvgl/src/lv_init.c ****  **********************/
 104:lvgl/src/lv_init.c **** 
 105:lvgl/src/lv_init.c **** /**********************
 106:lvgl/src/lv_init.c ****  *  STATIC PROTOTYPES
 107:lvgl/src/lv_init.c ****  **********************/
 108:lvgl/src/lv_init.c **** 
 109:lvgl/src/lv_init.c **** /**********************
 110:lvgl/src/lv_init.c ****  *  STATIC VARIABLES
 111:lvgl/src/lv_init.c ****  **********************/
 112:lvgl/src/lv_init.c **** #if LV_ENABLE_GLOBAL_CUSTOM == 0
 113:lvgl/src/lv_init.c ****     lv_global_t lv_global;
 114:lvgl/src/lv_init.c **** #endif
 115:lvgl/src/lv_init.c **** 
 116:lvgl/src/lv_init.c **** /**********************
 117:lvgl/src/lv_init.c ****  *      MACROS
 118:lvgl/src/lv_init.c ****  **********************/
 119:lvgl/src/lv_init.c **** 
 120:lvgl/src/lv_init.c **** #ifndef LV_GLOBAL_INIT
 121:lvgl/src/lv_init.c ****     #define LV_GLOBAL_INIT(__GLOBAL_PTR)    lv_global_init((lv_global_t *)(__GLOBAL_PTR))
 122:lvgl/src/lv_init.c **** #endif
 123:lvgl/src/lv_init.c **** 
 124:lvgl/src/lv_init.c **** /**********************
 125:lvgl/src/lv_init.c ****  *   GLOBAL FUNCTIONS
 126:lvgl/src/lv_init.c ****  **********************/
 127:lvgl/src/lv_init.c **** static inline void lv_global_init(lv_global_t * global)
 128:lvgl/src/lv_init.c **** {
  27              		.loc 1 128 1 view -0
  28              		.cfi_startproc
  29              		@ args = 0, pretend = 0, frame = 0
  30              		@ frame_needed = 0, uses_anonymous_args = 0
 129:lvgl/src/lv_init.c ****     LV_ASSERT_NULL(global);
  31              		.loc 1 129 5 view .LVU1
  32              		.loc 1 129 5 view .LVU2
  33 0000 08B3     		cbz	r0, .L3
 128:lvgl/src/lv_init.c ****     LV_ASSERT_NULL(global);
  34              		.loc 1 128 1 is_stmt 0 view .LVU3
  35 0002 10B5     		push	{r4, lr}
  36              	.LCFI0:
  37              		.cfi_def_cfa_offset 8
  38              		.cfi_offset 4, -8
  39              		.cfi_offset 14, -4
  40 0004 0446     		mov	r4, r0
  41              		.loc 1 129 5 is_stmt 1 view .LVU4
  42              		.loc 1 129 27 view .LVU5
ARM GAS  /tmp/ccGQIiFw.s 			page 4


 130:lvgl/src/lv_init.c **** 
 131:lvgl/src/lv_init.c ****     if(global == NULL) {
  43              		.loc 1 131 5 view .LVU6
 132:lvgl/src/lv_init.c ****         LV_LOG_ERROR("lv_global cannot be null");
 133:lvgl/src/lv_init.c ****         return;
 134:lvgl/src/lv_init.c ****     }
 135:lvgl/src/lv_init.c **** 
 136:lvgl/src/lv_init.c ****     lv_memzero(global, sizeof(lv_global_t));
  44              		.loc 1 136 5 view .LVU7
  45              	.LVL1:
  46              	.LBB4:
  47              	.LBI4:
  48              		.file 2 "lvgl/src/draw/../misc/../stdlib/lv_string.h"
   1:lvgl/src/draw/../misc/../stdlib/lv_string.h **** /**
   2:lvgl/src/draw/../misc/../stdlib/lv_string.h ****  * @file lv_string.h
   3:lvgl/src/draw/../misc/../stdlib/lv_string.h ****  *
   4:lvgl/src/draw/../misc/../stdlib/lv_string.h ****  */
   5:lvgl/src/draw/../misc/../stdlib/lv_string.h **** 
   6:lvgl/src/draw/../misc/../stdlib/lv_string.h **** #ifndef LV_STRING_H
   7:lvgl/src/draw/../misc/../stdlib/lv_string.h **** #define LV_STRING_H
   8:lvgl/src/draw/../misc/../stdlib/lv_string.h **** 
   9:lvgl/src/draw/../misc/../stdlib/lv_string.h **** #ifdef __cplusplus
  10:lvgl/src/draw/../misc/../stdlib/lv_string.h **** extern "C" {
  11:lvgl/src/draw/../misc/../stdlib/lv_string.h **** #endif
  12:lvgl/src/draw/../misc/../stdlib/lv_string.h **** 
  13:lvgl/src/draw/../misc/../stdlib/lv_string.h **** /*********************
  14:lvgl/src/draw/../misc/../stdlib/lv_string.h ****  *      INCLUDES
  15:lvgl/src/draw/../misc/../stdlib/lv_string.h ****  *********************/
  16:lvgl/src/draw/../misc/../stdlib/lv_string.h **** #include "../lv_conf_internal.h"
  17:lvgl/src/draw/../misc/../stdlib/lv_string.h **** #include "../misc/lv_types.h"
  18:lvgl/src/draw/../misc/../stdlib/lv_string.h **** 
  19:lvgl/src/draw/../misc/../stdlib/lv_string.h **** /*********************
  20:lvgl/src/draw/../misc/../stdlib/lv_string.h ****  *      DEFINES
  21:lvgl/src/draw/../misc/../stdlib/lv_string.h ****  *********************/
  22:lvgl/src/draw/../misc/../stdlib/lv_string.h **** 
  23:lvgl/src/draw/../misc/../stdlib/lv_string.h **** /**********************
  24:lvgl/src/draw/../misc/../stdlib/lv_string.h ****  *      TYPEDEFS
  25:lvgl/src/draw/../misc/../stdlib/lv_string.h ****  **********************/
  26:lvgl/src/draw/../misc/../stdlib/lv_string.h **** 
  27:lvgl/src/draw/../misc/../stdlib/lv_string.h **** /**********************
  28:lvgl/src/draw/../misc/../stdlib/lv_string.h ****  * GLOBAL PROTOTYPES
  29:lvgl/src/draw/../misc/../stdlib/lv_string.h ****  **********************/
  30:lvgl/src/draw/../misc/../stdlib/lv_string.h **** 
  31:lvgl/src/draw/../misc/../stdlib/lv_string.h **** /**
  32:lvgl/src/draw/../misc/../stdlib/lv_string.h ****  * @brief Copies a block of memory from a source address to a destination address.
  33:lvgl/src/draw/../misc/../stdlib/lv_string.h ****  * @param dst Pointer to the destination array where the content is to be copied.
  34:lvgl/src/draw/../misc/../stdlib/lv_string.h ****  * @param src Pointer to the source of data to be copied.
  35:lvgl/src/draw/../misc/../stdlib/lv_string.h ****  * @param len Number of bytes to copy.
  36:lvgl/src/draw/../misc/../stdlib/lv_string.h ****  * @return Pointer to the destination array.
  37:lvgl/src/draw/../misc/../stdlib/lv_string.h ****  * @note The function does not check for any overlapping of the source and destination memory block
  38:lvgl/src/draw/../misc/../stdlib/lv_string.h ****  */
  39:lvgl/src/draw/../misc/../stdlib/lv_string.h **** void * lv_memcpy(void * dst, const void * src, size_t len);
  40:lvgl/src/draw/../misc/../stdlib/lv_string.h **** 
  41:lvgl/src/draw/../misc/../stdlib/lv_string.h **** /**
  42:lvgl/src/draw/../misc/../stdlib/lv_string.h ****  * @brief Fills a block of memory with a specified value.
  43:lvgl/src/draw/../misc/../stdlib/lv_string.h ****  * @param dst Pointer to the destination array to fill with the specified value.
  44:lvgl/src/draw/../misc/../stdlib/lv_string.h ****  * @param v Value to be set. The value is passed as an int, but the function fills
ARM GAS  /tmp/ccGQIiFw.s 			page 5


  45:lvgl/src/draw/../misc/../stdlib/lv_string.h ****  *          the block of memory using the unsigned char conversion of this value.
  46:lvgl/src/draw/../misc/../stdlib/lv_string.h ****  * @param len Number of bytes to be set to the value.
  47:lvgl/src/draw/../misc/../stdlib/lv_string.h ****  */
  48:lvgl/src/draw/../misc/../stdlib/lv_string.h **** void lv_memset(void * dst, uint8_t v, size_t len);
  49:lvgl/src/draw/../misc/../stdlib/lv_string.h **** 
  50:lvgl/src/draw/../misc/../stdlib/lv_string.h **** /**
  51:lvgl/src/draw/../misc/../stdlib/lv_string.h ****  * @brief Move a block of memory from source to destination
  52:lvgl/src/draw/../misc/../stdlib/lv_string.h ****  * @param dst Pointer to the destination array where the content is to be copied.
  53:lvgl/src/draw/../misc/../stdlib/lv_string.h ****  * @param src Pointer to the source of data to be copied.
  54:lvgl/src/draw/../misc/../stdlib/lv_string.h ****  * @param len Number of bytes to copy
  55:lvgl/src/draw/../misc/../stdlib/lv_string.h ****  * @return Pointer to the destination array.
  56:lvgl/src/draw/../misc/../stdlib/lv_string.h ****  */
  57:lvgl/src/draw/../misc/../stdlib/lv_string.h **** void * lv_memmove(void * dst, const void * src, size_t len);
  58:lvgl/src/draw/../misc/../stdlib/lv_string.h **** 
  59:lvgl/src/draw/../misc/../stdlib/lv_string.h **** /**
  60:lvgl/src/draw/../misc/../stdlib/lv_string.h ****  * @brief This function will compare two memory blocks
  61:lvgl/src/draw/../misc/../stdlib/lv_string.h ****  * @param p1 Pointer to the first memory block
  62:lvgl/src/draw/../misc/../stdlib/lv_string.h ****  * @param p2 Pointer to the second memory block
  63:lvgl/src/draw/../misc/../stdlib/lv_string.h ****  * @param len Number of bytes to compare
  64:lvgl/src/draw/../misc/../stdlib/lv_string.h ****  * @return The difference between the value of the first unmatching byte.
  65:lvgl/src/draw/../misc/../stdlib/lv_string.h ****  */
  66:lvgl/src/draw/../misc/../stdlib/lv_string.h **** int lv_memcmp(const void * p1, const void * p2, size_t len);
  67:lvgl/src/draw/../misc/../stdlib/lv_string.h **** 
  68:lvgl/src/draw/../misc/../stdlib/lv_string.h **** /**
  69:lvgl/src/draw/../misc/../stdlib/lv_string.h ****  * Same as `memset(dst, 0x00, len)`.
  70:lvgl/src/draw/../misc/../stdlib/lv_string.h ****  * @param dst pointer to the destination buffer
  71:lvgl/src/draw/../misc/../stdlib/lv_string.h ****  * @param len number of byte to set
  72:lvgl/src/draw/../misc/../stdlib/lv_string.h ****  */
  73:lvgl/src/draw/../misc/../stdlib/lv_string.h **** static inline void lv_memzero(void * dst, size_t len)
  49              		.loc 2 73 20 view .LVU8
  50              	.LBB5:
  74:lvgl/src/draw/../misc/../stdlib/lv_string.h **** {
  75:lvgl/src/draw/../misc/../stdlib/lv_string.h ****     lv_memset(dst, 0x00, len);
  51              		.loc 2 75 5 view .LVU9
  52 0006 4FF40172 		mov	r2, #516
  53 000a 0021     		movs	r1, #0
  54 000c FFF7FEFF 		bl	lv_memset
  55              	.LVL2:
  56              		.loc 2 75 5 is_stmt 0 view .LVU10
  57              	.LBE5:
  58              	.LBE4:
 137:lvgl/src/lv_init.c **** 
 138:lvgl/src/lv_init.c ****     lv_ll_init(&(global->disp_ll), sizeof(lv_display_t));
  59              		.loc 1 138 5 is_stmt 1 view .LVU11
  60 0010 4FF44971 		mov	r1, #804
  61 0014 04F10800 		add	r0, r4, #8
  62 0018 FFF7FEFF 		bl	lv_ll_init
  63              	.LVL3:
 139:lvgl/src/lv_init.c ****     lv_ll_init(&(global->indev_ll), sizeof(lv_indev_t));
  64              		.loc 1 139 5 view .LVU12
  65 001c 4FF4A271 		mov	r1, #324
  66 0020 04F14800 		add	r0, r4, #72
  67 0024 FFF7FEFF 		bl	lv_ll_init
  68              	.LVL4:
 140:lvgl/src/lv_init.c **** 
 141:lvgl/src/lv_init.c ****     global->memory_zero = ZERO_MEM_SENTINEL;
  69              		.loc 1 141 5 view .LVU13
ARM GAS  /tmp/ccGQIiFw.s 			page 6


  70              		.loc 1 141 25 is_stmt 0 view .LVU14
  71 0028 074B     		ldr	r3, .L6
  72 002a A366     		str	r3, [r4, #104]
 142:lvgl/src/lv_init.c ****     global->style_refresh = true;
  73              		.loc 1 142 5 is_stmt 1 view .LVU15
  74              		.loc 1 142 27 is_stmt 0 view .LVU16
  75 002c 0123     		movs	r3, #1
  76 002e 84F82830 		strb	r3, [r4, #40]
 143:lvgl/src/lv_init.c ****     global->layout_count = LV_LAYOUT_LAST;
  77              		.loc 1 143 5 is_stmt 1 view .LVU17
  78              		.loc 1 143 26 is_stmt 0 view .LVU18
  79 0032 0323     		movs	r3, #3
  80 0034 E365     		str	r3, [r4, #92]
 144:lvgl/src/lv_init.c ****     global->style_last_custom_prop_id = (uint32_t)LV_STYLE_LAST_BUILT_IN_PROP;
  81              		.loc 1 144 5 is_stmt 1 view .LVU19
  82              		.loc 1 144 39 is_stmt 0 view .LVU20
  83 0036 B023     		movs	r3, #176
  84 0038 2363     		str	r3, [r4, #48]
 145:lvgl/src/lv_init.c ****     global->event_last_register_id = LV_EVENT_LAST;
  85              		.loc 1 145 5 is_stmt 1 view .LVU21
  86              		.loc 1 145 36 is_stmt 0 view .LVU22
  87 003a 4523     		movs	r3, #69
  88 003c 6367     		str	r3, [r4, #116]
 146:lvgl/src/lv_init.c ****     lv_rand_set_seed(0x1234ABCD);
  89              		.loc 1 146 5 is_stmt 1 view .LVU23
  90 003e 0348     		ldr	r0, .L6+4
  91 0040 FFF7FEFF 		bl	lv_rand_set_seed
  92              	.LVL5:
 147:lvgl/src/lv_init.c **** 
 148:lvgl/src/lv_init.c **** #ifdef LV_LOG_PRINT_CB
 149:lvgl/src/lv_init.c ****     void LV_LOG_PRINT_CB(lv_log_level_t, const char * txt);
 150:lvgl/src/lv_init.c ****     global->custom_log_print_cb = LV_LOG_PRINT_CB;
 151:lvgl/src/lv_init.c **** #endif
 152:lvgl/src/lv_init.c **** 
 153:lvgl/src/lv_init.c **** #if defined(LV_DRAW_SW_SHADOW_CACHE_SIZE) && LV_DRAW_SW_SHADOW_CACHE_SIZE > 0
 154:lvgl/src/lv_init.c ****     global->sw_shadow_cache.cache_size = -1;
 155:lvgl/src/lv_init.c ****     global->sw_shadow_cache.cache_r = -1;
 156:lvgl/src/lv_init.c **** #endif
 157:lvgl/src/lv_init.c **** }
  93              		.loc 1 157 1 is_stmt 0 view .LVU24
  94 0044 10BD     		pop	{r4, pc}
  95              	.LVL6:
  96              	.L3:
  97              	.LCFI1:
  98              		.cfi_def_cfa_offset 0
  99              		.cfi_restore 4
 100              		.cfi_restore 14
 129:lvgl/src/lv_init.c **** 
 101              		.loc 1 129 5 is_stmt 1 view .LVU25
 129:lvgl/src/lv_init.c **** 
 102              		.loc 1 129 5 view .LVU26
 129:lvgl/src/lv_init.c **** 
 103              		.loc 1 129 5 view .LVU27
 129:lvgl/src/lv_init.c **** 
 104              		.loc 1 129 5 view .LVU28
 129:lvgl/src/lv_init.c **** 
 105              		.loc 1 129 5 view .LVU29
ARM GAS  /tmp/ccGQIiFw.s 			page 7


 106 0046 FEE7     		b	.L3
 107              	.L7:
 108              		.align	2
 109              	.L6:
 110 0048 D4C3B2A1 		.word	-1582119980
 111 004c CDAB3412 		.word	305441741
 112              		.cfi_endproc
 113              	.LFE200:
 115              		.section	.text.lv_cleanup_devices,"ax",%progbits
 116              		.align	1
 117              		.syntax unified
 118              		.thumb
 119              		.thumb_func
 121              	lv_cleanup_devices:
 122              	.LVL7:
 123              	.LFB201:
 158:lvgl/src/lv_init.c **** 
 159:lvgl/src/lv_init.c **** static inline void lv_cleanup_devices(lv_global_t * global)
 160:lvgl/src/lv_init.c **** {
 124              		.loc 1 160 1 view -0
 125              		.cfi_startproc
 126              		@ args = 0, pretend = 0, frame = 0
 127              		@ frame_needed = 0, uses_anonymous_args = 0
 161:lvgl/src/lv_init.c ****     LV_ASSERT_NULL(global);
 128              		.loc 1 161 5 view .LVU31
 129              		.loc 1 161 5 view .LVU32
 130 0000 58B1     		cbz	r0, .L10
 160:lvgl/src/lv_init.c ****     LV_ASSERT_NULL(global);
 131              		.loc 1 160 1 is_stmt 0 view .LVU33
 132 0002 10B5     		push	{r4, lr}
 133              	.LCFI2:
 134              		.cfi_def_cfa_offset 8
 135              		.cfi_offset 4, -8
 136              		.cfi_offset 14, -4
 137              		.loc 1 161 5 is_stmt 1 view .LVU34
 138              		.loc 1 161 27 view .LVU35
 162:lvgl/src/lv_init.c **** 
 163:lvgl/src/lv_init.c ****     if(global) {
 139              		.loc 1 163 5 view .LVU36
 164:lvgl/src/lv_init.c ****         /* cleanup indev and display */
 165:lvgl/src/lv_init.c ****         lv_ll_clear_custom(&(global->indev_ll), (void (*)(void *)) lv_indev_delete);
 140              		.loc 1 165 9 view .LVU37
 141 0004 0549     		ldr	r1, .L13
 142 0006 0446     		mov	r4, r0
 143 0008 4830     		adds	r0, r0, #72
 144              	.LVL8:
 145              		.loc 1 165 9 is_stmt 0 view .LVU38
 146 000a FFF7FEFF 		bl	lv_ll_clear_custom
 147              	.LVL9:
 166:lvgl/src/lv_init.c ****         lv_ll_clear_custom(&(global->disp_ll), (void (*)(void *)) lv_display_delete);
 148              		.loc 1 166 9 is_stmt 1 view .LVU39
 149 000e 0449     		ldr	r1, .L13+4
 150 0010 04F10800 		add	r0, r4, #8
 151 0014 FFF7FEFF 		bl	lv_ll_clear_custom
 152              	.LVL10:
 167:lvgl/src/lv_init.c ****     }
 168:lvgl/src/lv_init.c **** }
ARM GAS  /tmp/ccGQIiFw.s 			page 8


 153              		.loc 1 168 1 is_stmt 0 view .LVU40
 154 0018 10BD     		pop	{r4, pc}
 155              	.LVL11:
 156              	.L10:
 157              	.LCFI3:
 158              		.cfi_def_cfa_offset 0
 159              		.cfi_restore 4
 160              		.cfi_restore 14
 161:lvgl/src/lv_init.c **** 
 161              		.loc 1 161 5 is_stmt 1 view .LVU41
 161:lvgl/src/lv_init.c **** 
 162              		.loc 1 161 5 view .LVU42
 161:lvgl/src/lv_init.c **** 
 163              		.loc 1 161 5 view .LVU43
 161:lvgl/src/lv_init.c **** 
 164              		.loc 1 161 5 view .LVU44
 161:lvgl/src/lv_init.c **** 
 165              		.loc 1 161 5 view .LVU45
 166 001a FEE7     		b	.L10
 167              	.L14:
 168              		.align	2
 169              	.L13:
 170 001c 00000000 		.word	lv_indev_delete
 171 0020 00000000 		.word	lv_display_delete
 172              		.cfi_endproc
 173              	.LFE201:
 175              		.section	.text.lv_is_initialized,"ax",%progbits
 176              		.align	1
 177              		.global	lv_is_initialized
 178              		.syntax unified
 179              		.thumb
 180              		.thumb_func
 182              	lv_is_initialized:
 183              	.LFB202:
 169:lvgl/src/lv_init.c **** 
 170:lvgl/src/lv_init.c **** bool lv_is_initialized(void)
 171:lvgl/src/lv_init.c **** {
 184              		.loc 1 171 1 view -0
 185              		.cfi_startproc
 186              		@ args = 0, pretend = 0, frame = 0
 187              		@ frame_needed = 0, uses_anonymous_args = 0
 188              		@ link register save eliminated.
 172:lvgl/src/lv_init.c **** #if LV_ENABLE_GLOBAL_CUSTOM
 173:lvgl/src/lv_init.c ****     if(LV_GLOBAL_DEFAULT()) return lv_initialized;
 174:lvgl/src/lv_init.c ****     else return false;
 175:lvgl/src/lv_init.c **** #else
 176:lvgl/src/lv_init.c ****     return lv_initialized;
 189              		.loc 1 176 5 view .LVU47
 177:lvgl/src/lv_init.c **** #endif
 178:lvgl/src/lv_init.c **** }
 190              		.loc 1 178 1 is_stmt 0 view .LVU48
 191 0000 014B     		ldr	r3, .L16
 192 0002 1879     		ldrb	r0, [r3, #4]	@ zero_extendqisi2
 193 0004 7047     		bx	lr
 194              	.L17:
 195 0006 00BF     		.align	2
 196              	.L16:
ARM GAS  /tmp/ccGQIiFw.s 			page 9


 197 0008 00000000 		.word	lv_global
 198              		.cfi_endproc
 199              	.LFE202:
 201              		.section	.text.lv_init,"ax",%progbits
 202              		.align	1
 203              		.global	lv_init
 204              		.syntax unified
 205              		.thumb
 206              		.thumb_func
 208              	lv_init:
 209              	.LFB203:
 179:lvgl/src/lv_init.c **** 
 180:lvgl/src/lv_init.c **** void lv_init(void)
 181:lvgl/src/lv_init.c **** {
 210              		.loc 1 181 1 is_stmt 1 view -0
 211              		.cfi_startproc
 212              		@ args = 0, pretend = 0, frame = 0
 213              		@ frame_needed = 0, uses_anonymous_args = 0
 214 0000 08B5     		push	{r3, lr}
 215              	.LCFI4:
 216              		.cfi_def_cfa_offset 8
 217              		.cfi_offset 3, -8
 218              		.cfi_offset 14, -4
 182:lvgl/src/lv_init.c ****     /*First initialize Garbage Collection if needed*/
 183:lvgl/src/lv_init.c **** #ifdef LV_GC_INIT
 184:lvgl/src/lv_init.c ****     LV_GC_INIT();
 185:lvgl/src/lv_init.c **** #endif
 186:lvgl/src/lv_init.c **** 
 187:lvgl/src/lv_init.c ****     /*Do nothing if already initialized*/
 188:lvgl/src/lv_init.c ****     if(lv_initialized) {
 219              		.loc 1 188 5 view .LVU50
 220              		.loc 1 188 8 is_stmt 0 view .LVU51
 221 0002 154B     		ldr	r3, .L22
 222 0004 1B79     		ldrb	r3, [r3, #4]	@ zero_extendqisi2
 223              		.loc 1 188 7 view .LVU52
 224 0006 03B1     		cbz	r3, .L21
 225              	.L18:
 189:lvgl/src/lv_init.c ****         LV_LOG_WARN("lv_init: already initialized");
 190:lvgl/src/lv_init.c ****         return;
 191:lvgl/src/lv_init.c ****     }
 192:lvgl/src/lv_init.c **** 
 193:lvgl/src/lv_init.c ****     LV_LOG_INFO("begin");
 194:lvgl/src/lv_init.c **** 
 195:lvgl/src/lv_init.c ****     /*Initialize members of static variable lv_global */
 196:lvgl/src/lv_init.c ****     LV_GLOBAL_INIT(LV_GLOBAL_DEFAULT());
 197:lvgl/src/lv_init.c **** 
 198:lvgl/src/lv_init.c ****     lv_mem_init();
 199:lvgl/src/lv_init.c **** 
 200:lvgl/src/lv_init.c ****     lv_draw_buf_init_handlers();
 201:lvgl/src/lv_init.c **** 
 202:lvgl/src/lv_init.c **** #if LV_USE_SPAN != 0
 203:lvgl/src/lv_init.c ****     lv_span_stack_init();
 204:lvgl/src/lv_init.c **** #endif
 205:lvgl/src/lv_init.c **** 
 206:lvgl/src/lv_init.c **** #if LV_USE_PROFILER && LV_USE_PROFILER_BUILTIN
 207:lvgl/src/lv_init.c **** #if LV_USE_PROFILER_BUILTIN_POSIX
 208:lvgl/src/lv_init.c ****     lv_profiler_builtin_posix_init();
ARM GAS  /tmp/ccGQIiFw.s 			page 10


 209:lvgl/src/lv_init.c **** #else
 210:lvgl/src/lv_init.c ****     lv_profiler_builtin_config_t profiler_config;
 211:lvgl/src/lv_init.c ****     lv_profiler_builtin_config_init(&profiler_config);
 212:lvgl/src/lv_init.c ****     lv_profiler_builtin_init(&profiler_config);
 213:lvgl/src/lv_init.c **** #endif
 214:lvgl/src/lv_init.c **** #endif
 215:lvgl/src/lv_init.c **** 
 216:lvgl/src/lv_init.c ****     lv_os_init();
 217:lvgl/src/lv_init.c **** 
 218:lvgl/src/lv_init.c ****     lv_timer_core_init();
 219:lvgl/src/lv_init.c **** 
 220:lvgl/src/lv_init.c ****     lv_fs_init();
 221:lvgl/src/lv_init.c **** 
 222:lvgl/src/lv_init.c ****     lv_layout_init();
 223:lvgl/src/lv_init.c **** 
 224:lvgl/src/lv_init.c ****     lv_anim_core_init();
 225:lvgl/src/lv_init.c **** 
 226:lvgl/src/lv_init.c ****     lv_group_init();
 227:lvgl/src/lv_init.c **** 
 228:lvgl/src/lv_init.c **** #if LV_USE_FREETYPE
 229:lvgl/src/lv_init.c ****     /* Since the drawing unit needs to register the freetype event,
 230:lvgl/src/lv_init.c ****      * initialize the freetype module first
 231:lvgl/src/lv_init.c ****      */
 232:lvgl/src/lv_init.c ****     lv_freetype_init(LV_FREETYPE_CACHE_FT_GLYPH_CNT);
 233:lvgl/src/lv_init.c **** #endif
 234:lvgl/src/lv_init.c **** 
 235:lvgl/src/lv_init.c ****     lv_draw_init();
 236:lvgl/src/lv_init.c **** 
 237:lvgl/src/lv_init.c **** #if LV_USE_DRAW_SW
 238:lvgl/src/lv_init.c ****     lv_draw_sw_init();
 239:lvgl/src/lv_init.c **** #endif
 240:lvgl/src/lv_init.c **** 
 241:lvgl/src/lv_init.c **** #if LV_USE_NEMA_GFX
 242:lvgl/src/lv_init.c ****     lv_draw_nema_gfx_init();
 243:lvgl/src/lv_init.c **** #endif
 244:lvgl/src/lv_init.c **** 
 245:lvgl/src/lv_init.c **** #if LV_USE_PXP
 246:lvgl/src/lv_init.c **** #if LV_USE_DRAW_PXP || LV_USE_ROTATE_PXP
 247:lvgl/src/lv_init.c ****     lv_draw_pxp_init();
 248:lvgl/src/lv_init.c **** #endif
 249:lvgl/src/lv_init.c **** #endif
 250:lvgl/src/lv_init.c **** 
 251:lvgl/src/lv_init.c **** #if LV_USE_G2D
 252:lvgl/src/lv_init.c **** #if LV_USE_DRAW_G2D || LV_USE_ROTATE_G2D
 253:lvgl/src/lv_init.c ****     lv_draw_g2d_init();
 254:lvgl/src/lv_init.c **** #endif
 255:lvgl/src/lv_init.c **** #endif
 256:lvgl/src/lv_init.c **** 
 257:lvgl/src/lv_init.c **** #if LV_USE_DRAW_DAVE2D
 258:lvgl/src/lv_init.c ****     lv_draw_dave2d_init();
 259:lvgl/src/lv_init.c **** #endif
 260:lvgl/src/lv_init.c **** 
 261:lvgl/src/lv_init.c **** #if LV_USE_DRAW_SDL
 262:lvgl/src/lv_init.c ****     lv_draw_sdl_init();
 263:lvgl/src/lv_init.c **** #endif
 264:lvgl/src/lv_init.c **** 
 265:lvgl/src/lv_init.c **** #if LV_USE_DRAW_DMA2D
ARM GAS  /tmp/ccGQIiFw.s 			page 11


 266:lvgl/src/lv_init.c ****     lv_draw_dma2d_init();
 267:lvgl/src/lv_init.c **** #endif
 268:lvgl/src/lv_init.c **** 
 269:lvgl/src/lv_init.c **** #if LV_USE_DRAW_OPENGLES
 270:lvgl/src/lv_init.c ****     lv_draw_opengles_init();
 271:lvgl/src/lv_init.c **** #endif
 272:lvgl/src/lv_init.c **** 
 273:lvgl/src/lv_init.c **** #if LV_USE_PPA
 274:lvgl/src/lv_init.c ****     lv_draw_ppa_init();
 275:lvgl/src/lv_init.c **** #endif
 276:lvgl/src/lv_init.c **** 
 277:lvgl/src/lv_init.c **** #if LV_USE_WINDOWS
 278:lvgl/src/lv_init.c ****     lv_windows_platform_init();
 279:lvgl/src/lv_init.c **** #endif
 280:lvgl/src/lv_init.c **** 
 281:lvgl/src/lv_init.c **** #if LV_USE_UEFI
 282:lvgl/src/lv_init.c ****     lv_uefi_platform_init();
 283:lvgl/src/lv_init.c **** #endif
 284:lvgl/src/lv_init.c **** 
 285:lvgl/src/lv_init.c **** #if LV_USE_DRAW_EVE
 286:lvgl/src/lv_init.c ****     lv_draw_eve_init();
 287:lvgl/src/lv_init.c **** #endif
 288:lvgl/src/lv_init.c **** 
 289:lvgl/src/lv_init.c ****     lv_obj_style_init();
 290:lvgl/src/lv_init.c **** 
 291:lvgl/src/lv_init.c ****     /*Initialize the screen refresh system*/
 292:lvgl/src/lv_init.c ****     lv_refr_init();
 293:lvgl/src/lv_init.c **** 
 294:lvgl/src/lv_init.c **** #if LV_USE_SYSMON
 295:lvgl/src/lv_init.c ****     lv_sysmon_builtin_init();
 296:lvgl/src/lv_init.c **** #endif
 297:lvgl/src/lv_init.c **** 
 298:lvgl/src/lv_init.c ****     lv_image_decoder_init(LV_CACHE_DEF_SIZE, LV_IMAGE_HEADER_CACHE_DEF_CNT);
 299:lvgl/src/lv_init.c ****     lv_bin_decoder_init();  /*LVGL built-in binary image decoder*/
 300:lvgl/src/lv_init.c **** 
 301:lvgl/src/lv_init.c **** #if LV_USE_DRAW_VG_LITE
 302:lvgl/src/lv_init.c ****     lv_draw_vg_lite_init();
 303:lvgl/src/lv_init.c **** #endif
 304:lvgl/src/lv_init.c **** 
 305:lvgl/src/lv_init.c ****     /*Test if the IDE has UTF-8 encoding*/
 306:lvgl/src/lv_init.c ****     const char * txt = "Á";
 307:lvgl/src/lv_init.c **** 
 308:lvgl/src/lv_init.c ****     uint8_t * txt_u8 = (uint8_t *)txt;
 309:lvgl/src/lv_init.c ****     if(txt_u8[0] != 0xc3 || txt_u8[1] != 0x81 || txt_u8[2] != 0x00) {
 310:lvgl/src/lv_init.c ****         LV_LOG_WARN("The strings have no UTF-8 encoding. Non-ASCII characters won't be displayed.")
 311:lvgl/src/lv_init.c ****     }
 312:lvgl/src/lv_init.c **** 
 313:lvgl/src/lv_init.c ****     uint32_t endianness_test = 0x11223344;
 314:lvgl/src/lv_init.c ****     uint8_t * endianness_test_p = (uint8_t *) &endianness_test;
 315:lvgl/src/lv_init.c ****     bool big_endian = endianness_test_p[0] == 0x11;
 316:lvgl/src/lv_init.c **** 
 317:lvgl/src/lv_init.c ****     if(big_endian) {
 318:lvgl/src/lv_init.c ****         LV_ASSERT_MSG(LV_BIG_ENDIAN_SYSTEM == 1,
 319:lvgl/src/lv_init.c ****                       "It's a big endian system but LV_BIG_ENDIAN_SYSTEM is not enabled in lv_conf.
 320:lvgl/src/lv_init.c ****     }
 321:lvgl/src/lv_init.c ****     else {
 322:lvgl/src/lv_init.c ****         LV_ASSERT_MSG(LV_BIG_ENDIAN_SYSTEM == 0,
ARM GAS  /tmp/ccGQIiFw.s 			page 12


 323:lvgl/src/lv_init.c ****                       "It's a little endian system but LV_BIG_ENDIAN_SYSTEM is enabled in lv_conf.h
 324:lvgl/src/lv_init.c ****     }
 325:lvgl/src/lv_init.c **** 
 326:lvgl/src/lv_init.c **** #if LV_USE_ASSERT_MEM_INTEGRITY
 327:lvgl/src/lv_init.c ****     LV_LOG_WARN("Memory integrity checks are enabled via LV_USE_ASSERT_MEM_INTEGRITY which makes LV
 328:lvgl/src/lv_init.c **** #endif
 329:lvgl/src/lv_init.c **** 
 330:lvgl/src/lv_init.c **** #if LV_USE_ASSERT_OBJ
 331:lvgl/src/lv_init.c ****     LV_LOG_WARN("Object sanity checks are enabled via LV_USE_ASSERT_OBJ which makes LVGL much slowe
 332:lvgl/src/lv_init.c **** #endif
 333:lvgl/src/lv_init.c **** 
 334:lvgl/src/lv_init.c **** #if LV_USE_ASSERT_STYLE
 335:lvgl/src/lv_init.c ****     LV_LOG_WARN("Style sanity checks are enabled that uses more RAM");
 336:lvgl/src/lv_init.c **** #endif
 337:lvgl/src/lv_init.c **** 
 338:lvgl/src/lv_init.c **** #if LV_LOG_LEVEL == LV_LOG_LEVEL_TRACE
 339:lvgl/src/lv_init.c ****     LV_LOG_WARN("Log level is set to 'Trace' which makes LVGL much slower");
 340:lvgl/src/lv_init.c **** #endif
 341:lvgl/src/lv_init.c **** 
 342:lvgl/src/lv_init.c **** #if LV_USE_FS_FATFS != '\0'
 343:lvgl/src/lv_init.c ****     lv_fs_fatfs_init();
 344:lvgl/src/lv_init.c **** #endif
 345:lvgl/src/lv_init.c **** 
 346:lvgl/src/lv_init.c **** #if LV_USE_FS_STDIO != '\0'
 347:lvgl/src/lv_init.c ****     lv_fs_stdio_init();
 348:lvgl/src/lv_init.c **** #endif
 349:lvgl/src/lv_init.c **** 
 350:lvgl/src/lv_init.c **** #if LV_USE_FS_POSIX != '\0'
 351:lvgl/src/lv_init.c ****     lv_fs_posix_init();
 352:lvgl/src/lv_init.c **** #endif
 353:lvgl/src/lv_init.c **** 
 354:lvgl/src/lv_init.c **** #if LV_USE_FS_WIN32 != '\0'
 355:lvgl/src/lv_init.c ****     lv_fs_win32_init();
 356:lvgl/src/lv_init.c **** #endif
 357:lvgl/src/lv_init.c **** 
 358:lvgl/src/lv_init.c **** #if LV_USE_FS_MEMFS
 359:lvgl/src/lv_init.c ****     lv_fs_memfs_init();
 360:lvgl/src/lv_init.c **** #endif
 361:lvgl/src/lv_init.c **** 
 362:lvgl/src/lv_init.c **** #if LV_USE_FS_LITTLEFS
 363:lvgl/src/lv_init.c ****     lv_fs_littlefs_init();
 364:lvgl/src/lv_init.c **** #endif
 365:lvgl/src/lv_init.c **** 
 366:lvgl/src/lv_init.c **** #if LV_USE_FS_ARDUINO_ESP_LITTLEFS
 367:lvgl/src/lv_init.c ****     lv_fs_arduino_esp_littlefs_init();
 368:lvgl/src/lv_init.c **** #endif
 369:lvgl/src/lv_init.c **** 
 370:lvgl/src/lv_init.c **** #if LV_USE_FS_ARDUINO_SD
 371:lvgl/src/lv_init.c ****     lv_fs_arduino_sd_init();
 372:lvgl/src/lv_init.c **** #endif
 373:lvgl/src/lv_init.c **** 
 374:lvgl/src/lv_init.c **** #if LV_USE_FS_UEFI
 375:lvgl/src/lv_init.c ****     lv_fs_uefi_init();
 376:lvgl/src/lv_init.c **** #endif
 377:lvgl/src/lv_init.c **** 
 378:lvgl/src/lv_init.c **** #if LV_USE_FS_FROGFS
 379:lvgl/src/lv_init.c ****     lv_fs_frogfs_init();
ARM GAS  /tmp/ccGQIiFw.s 			page 13


 380:lvgl/src/lv_init.c **** #endif
 381:lvgl/src/lv_init.c **** 
 382:lvgl/src/lv_init.c ****     /*Use the earlier initialized position of FFmpeg decoder as a fallback decoder*/
 383:lvgl/src/lv_init.c **** #if LV_USE_FFMPEG
 384:lvgl/src/lv_init.c ****     lv_ffmpeg_init();
 385:lvgl/src/lv_init.c **** #endif
 386:lvgl/src/lv_init.c **** 
 387:lvgl/src/lv_init.c **** #if LV_USE_LODEPNG
 388:lvgl/src/lv_init.c ****     lv_lodepng_init();
 389:lvgl/src/lv_init.c **** #endif
 390:lvgl/src/lv_init.c **** 
 391:lvgl/src/lv_init.c **** #if LV_USE_LIBPNG
 392:lvgl/src/lv_init.c ****     lv_libpng_init();
 393:lvgl/src/lv_init.c **** #endif
 394:lvgl/src/lv_init.c **** 
 395:lvgl/src/lv_init.c **** #if LV_USE_TJPGD
 396:lvgl/src/lv_init.c ****     lv_tjpgd_init();
 397:lvgl/src/lv_init.c **** #endif
 398:lvgl/src/lv_init.c **** 
 399:lvgl/src/lv_init.c **** #if LV_USE_LIBJPEG_TURBO
 400:lvgl/src/lv_init.c ****     lv_libjpeg_turbo_init();
 401:lvgl/src/lv_init.c **** #endif
 402:lvgl/src/lv_init.c **** 
 403:lvgl/src/lv_init.c **** #if LV_USE_LIBWEBP
 404:lvgl/src/lv_init.c ****     lv_libwebp_init();
 405:lvgl/src/lv_init.c **** #endif
 406:lvgl/src/lv_init.c **** 
 407:lvgl/src/lv_init.c **** #if LV_USE_BMP
 408:lvgl/src/lv_init.c ****     lv_bmp_init();
 409:lvgl/src/lv_init.c **** #endif
 410:lvgl/src/lv_init.c **** 
 411:lvgl/src/lv_init.c **** #if LV_USE_SVG
 412:lvgl/src/lv_init.c ****     lv_svg_decoder_init();
 413:lvgl/src/lv_init.c **** #endif
 414:lvgl/src/lv_init.c **** 
 415:lvgl/src/lv_init.c **** #if LV_USE_TRANSLATION
 416:lvgl/src/lv_init.c ****     lv_translation_init();
 417:lvgl/src/lv_init.c **** #endif
 418:lvgl/src/lv_init.c **** 
 419:lvgl/src/lv_init.c **** #if LV_USE_XML
 420:lvgl/src/lv_init.c ****     lv_xml_init();
 421:lvgl/src/lv_init.c **** #endif
 422:lvgl/src/lv_init.c **** 
 423:lvgl/src/lv_init.c ****     lv_initialized = true;
 424:lvgl/src/lv_init.c **** 
 425:lvgl/src/lv_init.c ****     LV_LOG_TRACE("finished");
 426:lvgl/src/lv_init.c **** }
 226              		.loc 1 426 1 view .LVU53
 227 0008 08BD     		pop	{r3, pc}
 228              	.L21:
 193:lvgl/src/lv_init.c **** 
 229              		.loc 1 193 5 is_stmt 1 view .LVU54
 193:lvgl/src/lv_init.c **** 
 230              		.loc 1 193 5 view .LVU55
 193:lvgl/src/lv_init.c **** 
 231              		.loc 1 193 5 view .LVU56
 196:lvgl/src/lv_init.c **** 
ARM GAS  /tmp/ccGQIiFw.s 			page 14


 232              		.loc 1 196 5 view .LVU57
 233 000a 1348     		ldr	r0, .L22
 234 000c FFF7FEFF 		bl	lv_global_init
 235              	.LVL12:
 198:lvgl/src/lv_init.c **** 
 236              		.loc 1 198 5 view .LVU58
 237 0010 FFF7FEFF 		bl	lv_mem_init
 238              	.LVL13:
 200:lvgl/src/lv_init.c **** 
 239              		.loc 1 200 5 view .LVU59
 240 0014 FFF7FEFF 		bl	lv_draw_buf_init_handlers
 241              	.LVL14:
 203:lvgl/src/lv_init.c **** #endif
 242              		.loc 1 203 5 view .LVU60
 243 0018 FFF7FEFF 		bl	lv_span_stack_init
 244              	.LVL15:
 216:lvgl/src/lv_init.c **** 
 245              		.loc 1 216 5 view .LVU61
 246 001c FFF7FEFF 		bl	lv_os_init
 247              	.LVL16:
 218:lvgl/src/lv_init.c **** 
 248              		.loc 1 218 5 view .LVU62
 249 0020 FFF7FEFF 		bl	lv_timer_core_init
 250              	.LVL17:
 220:lvgl/src/lv_init.c **** 
 251              		.loc 1 220 5 view .LVU63
 252 0024 FFF7FEFF 		bl	lv_fs_init
 253              	.LVL18:
 222:lvgl/src/lv_init.c **** 
 254              		.loc 1 222 5 view .LVU64
 255 0028 FFF7FEFF 		bl	lv_layout_init
 256              	.LVL19:
 224:lvgl/src/lv_init.c **** 
 257              		.loc 1 224 5 view .LVU65
 258 002c FFF7FEFF 		bl	lv_anim_core_init
 259              	.LVL20:
 226:lvgl/src/lv_init.c **** 
 260              		.loc 1 226 5 view .LVU66
 261 0030 FFF7FEFF 		bl	lv_group_init
 262              	.LVL21:
 235:lvgl/src/lv_init.c **** 
 263              		.loc 1 235 5 view .LVU67
 264 0034 FFF7FEFF 		bl	lv_draw_init
 265              	.LVL22:
 238:lvgl/src/lv_init.c **** #endif
 266              		.loc 1 238 5 view .LVU68
 267 0038 FFF7FEFF 		bl	lv_draw_sw_init
 268              	.LVL23:
 289:lvgl/src/lv_init.c **** 
 269              		.loc 1 289 5 view .LVU69
 270 003c FFF7FEFF 		bl	lv_obj_style_init
 271              	.LVL24:
 292:lvgl/src/lv_init.c **** 
 272              		.loc 1 292 5 view .LVU70
 273 0040 FFF7FEFF 		bl	lv_refr_init
 274              	.LVL25:
 298:lvgl/src/lv_init.c ****     lv_bin_decoder_init();  /*LVGL built-in binary image decoder*/
ARM GAS  /tmp/ccGQIiFw.s 			page 15


 275              		.loc 1 298 5 view .LVU71
 276 0044 0021     		movs	r1, #0
 277 0046 0846     		mov	r0, r1
 278 0048 FFF7FEFF 		bl	lv_image_decoder_init
 279              	.LVL26:
 299:lvgl/src/lv_init.c **** 
 280              		.loc 1 299 5 view .LVU72
 281 004c FFF7FEFF 		bl	lv_bin_decoder_init
 282              	.LVL27:
 306:lvgl/src/lv_init.c **** 
 283              		.loc 1 306 5 view .LVU73
 308:lvgl/src/lv_init.c ****     if(txt_u8[0] != 0xc3 || txt_u8[1] != 0x81 || txt_u8[2] != 0x00) {
 284              		.loc 1 308 5 view .LVU74
 309:lvgl/src/lv_init.c ****         LV_LOG_WARN("The strings have no UTF-8 encoding. Non-ASCII characters won't be displayed.")
 285              		.loc 1 309 5 view .LVU75
 310:lvgl/src/lv_init.c ****     }
 286              		.loc 1 310 9 view .LVU76
 310:lvgl/src/lv_init.c ****     }
 287              		.loc 1 310 9 view .LVU77
 310:lvgl/src/lv_init.c ****     }
 288              		.loc 1 310 9 view .LVU78
 313:lvgl/src/lv_init.c ****     uint8_t * endianness_test_p = (uint8_t *) &endianness_test;
 289              		.loc 1 313 5 view .LVU79
 314:lvgl/src/lv_init.c ****     bool big_endian = endianness_test_p[0] == 0x11;
 290              		.loc 1 314 5 view .LVU80
 315:lvgl/src/lv_init.c **** 
 291              		.loc 1 315 5 view .LVU81
 317:lvgl/src/lv_init.c ****         LV_ASSERT_MSG(LV_BIG_ENDIAN_SYSTEM == 1,
 292              		.loc 1 317 5 view .LVU82
 322:lvgl/src/lv_init.c ****                       "It's a little endian system but LV_BIG_ENDIAN_SYSTEM is enabled in lv_conf.h
 293              		.loc 1 322 9 view .LVU83
 322:lvgl/src/lv_init.c ****                       "It's a little endian system but LV_BIG_ENDIAN_SYSTEM is enabled in lv_conf.h
 294              		.loc 1 322 9 view .LVU84
 322:lvgl/src/lv_init.c ****                       "It's a little endian system but LV_BIG_ENDIAN_SYSTEM is enabled in lv_conf.h
 295              		.loc 1 322 9 view .LVU85
 423:lvgl/src/lv_init.c **** 
 296              		.loc 1 423 5 view .LVU86
 423:lvgl/src/lv_init.c **** 
 297              		.loc 1 423 20 is_stmt 0 view .LVU87
 298 0050 0123     		movs	r3, #1
 299 0052 014A     		ldr	r2, .L22
 300 0054 1371     		strb	r3, [r2, #4]
 425:lvgl/src/lv_init.c **** }
 301              		.loc 1 425 5 is_stmt 1 view .LVU88
 425:lvgl/src/lv_init.c **** }
 302              		.loc 1 425 5 view .LVU89
 425:lvgl/src/lv_init.c **** }
 303              		.loc 1 425 5 view .LVU90
 304              	.LVL28:
 425:lvgl/src/lv_init.c **** }
 305              		.loc 1 425 5 is_stmt 0 view .LVU91
 306 0056 D7E7     		b	.L18
 307              	.L23:
 308              		.align	2
 309              	.L22:
 310 0058 00000000 		.word	lv_global
 311              		.cfi_endproc
ARM GAS  /tmp/ccGQIiFw.s 			page 16


 312              	.LFE203:
 314              		.section	.text.lv_deinit,"ax",%progbits
 315              		.align	1
 316              		.global	lv_deinit
 317              		.syntax unified
 318              		.thumb
 319              		.thumb_func
 321              	lv_deinit:
 322              	.LFB204:
 427:lvgl/src/lv_init.c **** 
 428:lvgl/src/lv_init.c **** void lv_deinit(void)
 429:lvgl/src/lv_init.c **** {
 323              		.loc 1 429 1 is_stmt 1 view -0
 324              		.cfi_startproc
 325              		@ args = 0, pretend = 0, frame = 0
 326              		@ frame_needed = 0, uses_anonymous_args = 0
 430:lvgl/src/lv_init.c ****     /*Do nothing if already deinit*/
 431:lvgl/src/lv_init.c ****     if(!lv_initialized) {
 327              		.loc 1 431 5 view .LVU93
 328              		.loc 1 431 9 is_stmt 0 view .LVU94
 329 0000 184B     		ldr	r3, .L31
 330 0002 1B79     		ldrb	r3, [r3, #4]	@ zero_extendqisi2
 331              		.loc 1 431 7 view .LVU95
 332 0004 13B1     		cbz	r3, .L27
 432:lvgl/src/lv_init.c ****         LV_LOG_WARN("lv_deinit: already deinit!");
 433:lvgl/src/lv_init.c ****         return;
 434:lvgl/src/lv_init.c ****     }
 435:lvgl/src/lv_init.c **** 
 436:lvgl/src/lv_init.c ****     if(lv_deinit_in_progress) return;
 333              		.loc 1 436 5 is_stmt 1 view .LVU96
 334              		.loc 1 436 8 is_stmt 0 view .LVU97
 335 0006 174B     		ldr	r3, .L31
 336 0008 5B79     		ldrb	r3, [r3, #5]	@ zero_extendqisi2
 337              		.loc 1 436 7 view .LVU98
 338 000a 03B1     		cbz	r3, .L30
 339              	.L27:
 340 000c 7047     		bx	lr
 341              	.L30:
 429:lvgl/src/lv_init.c ****     /*Do nothing if already deinit*/
 342              		.loc 1 429 1 view .LVU99
 343 000e 10B5     		push	{r4, lr}
 344              	.LCFI5:
 345              		.cfi_def_cfa_offset 8
 346              		.cfi_offset 4, -8
 347              		.cfi_offset 14, -4
 437:lvgl/src/lv_init.c **** 
 438:lvgl/src/lv_init.c ****     lv_deinit_in_progress = true;
 348              		.loc 1 438 5 is_stmt 1 view .LVU100
 349              		.loc 1 438 27 is_stmt 0 view .LVU101
 350 0010 0123     		movs	r3, #1
 351 0012 144C     		ldr	r4, .L31
 352 0014 6371     		strb	r3, [r4, #5]
 439:lvgl/src/lv_init.c **** 
 440:lvgl/src/lv_init.c **** #if LV_USE_SYSMON
 441:lvgl/src/lv_init.c ****     lv_sysmon_builtin_deinit();
 442:lvgl/src/lv_init.c **** #endif
 443:lvgl/src/lv_init.c **** 
ARM GAS  /tmp/ccGQIiFw.s 			page 17


 444:lvgl/src/lv_init.c ****     lv_display_set_default(NULL);
 353              		.loc 1 444 5 is_stmt 1 view .LVU102
 354 0016 0020     		movs	r0, #0
 355 0018 FFF7FEFF 		bl	lv_display_set_default
 356              	.LVL29:
 445:lvgl/src/lv_init.c **** 
 446:lvgl/src/lv_init.c ****     lv_cleanup_devices(LV_GLOBAL_DEFAULT());
 357              		.loc 1 446 5 view .LVU103
 358 001c 2046     		mov	r0, r4
 359 001e FFF7FEFF 		bl	lv_cleanup_devices
 360              	.LVL30:
 447:lvgl/src/lv_init.c **** 
 448:lvgl/src/lv_init.c **** #if LV_USE_EVDEV
 449:lvgl/src/lv_init.c ****     lv_evdev_deinit();
 450:lvgl/src/lv_init.c **** #endif
 451:lvgl/src/lv_init.c **** 
 452:lvgl/src/lv_init.c **** #if LV_USE_SPAN != 0
 453:lvgl/src/lv_init.c ****     lv_span_stack_deinit();
 361              		.loc 1 453 5 view .LVU104
 362 0022 FFF7FEFF 		bl	lv_span_stack_deinit
 363              	.LVL31:
 454:lvgl/src/lv_init.c **** #endif
 455:lvgl/src/lv_init.c **** 
 456:lvgl/src/lv_init.c **** #if LV_USE_FREETYPE
 457:lvgl/src/lv_init.c ****     lv_freetype_uninit();
 458:lvgl/src/lv_init.c **** #endif
 459:lvgl/src/lv_init.c **** 
 460:lvgl/src/lv_init.c **** #if LV_USE_THEME_DEFAULT
 461:lvgl/src/lv_init.c ****     lv_theme_default_deinit();
 364              		.loc 1 461 5 view .LVU105
 365 0026 FFF7FEFF 		bl	lv_theme_default_deinit
 366              	.LVL32:
 462:lvgl/src/lv_init.c **** #endif
 463:lvgl/src/lv_init.c **** 
 464:lvgl/src/lv_init.c **** #if LV_USE_THEME_SIMPLE
 465:lvgl/src/lv_init.c ****     lv_theme_simple_deinit();
 367              		.loc 1 465 5 view .LVU106
 368 002a FFF7FEFF 		bl	lv_theme_simple_deinit
 369              	.LVL33:
 466:lvgl/src/lv_init.c **** #endif
 467:lvgl/src/lv_init.c **** 
 468:lvgl/src/lv_init.c **** #if LV_USE_THEME_MONO
 469:lvgl/src/lv_init.c ****     lv_theme_mono_deinit();
 370              		.loc 1 469 5 view .LVU107
 371 002e FFF7FEFF 		bl	lv_theme_mono_deinit
 372              	.LVL34:
 470:lvgl/src/lv_init.c **** #endif
 471:lvgl/src/lv_init.c **** 
 472:lvgl/src/lv_init.c ****     lv_image_decoder_deinit();
 373              		.loc 1 472 5 view .LVU108
 374 0032 FFF7FEFF 		bl	lv_image_decoder_deinit
 375              	.LVL35:
 473:lvgl/src/lv_init.c **** 
 474:lvgl/src/lv_init.c ****     lv_refr_deinit();
 376              		.loc 1 474 5 view .LVU109
 377 0036 FFF7FEFF 		bl	lv_refr_deinit
 378              	.LVL36:
ARM GAS  /tmp/ccGQIiFw.s 			page 18


 475:lvgl/src/lv_init.c **** 
 476:lvgl/src/lv_init.c ****     lv_obj_style_deinit();
 379              		.loc 1 476 5 view .LVU110
 380 003a FFF7FEFF 		bl	lv_obj_style_deinit
 381              	.LVL37:
 477:lvgl/src/lv_init.c **** 
 478:lvgl/src/lv_init.c **** #if LV_USE_UEFI
 479:lvgl/src/lv_init.c ****     lv_uefi_platform_deinit();
 480:lvgl/src/lv_init.c **** #endif
 481:lvgl/src/lv_init.c **** 
 482:lvgl/src/lv_init.c **** #if LV_USE_PXP
 483:lvgl/src/lv_init.c **** #if LV_USE_DRAW_PXP || LV_USE_ROTATE_PXP
 484:lvgl/src/lv_init.c ****     lv_draw_pxp_deinit();
 485:lvgl/src/lv_init.c **** #endif
 486:lvgl/src/lv_init.c **** #endif
 487:lvgl/src/lv_init.c **** 
 488:lvgl/src/lv_init.c **** #if LV_USE_WAYLAND
 489:lvgl/src/lv_init.c ****     lv_wayland_deinit();
 490:lvgl/src/lv_init.c **** #endif
 491:lvgl/src/lv_init.c **** #if LV_USE_G2D
 492:lvgl/src/lv_init.c **** #if LV_USE_DRAW_G2D || LV_USE_ROTATE_G2D
 493:lvgl/src/lv_init.c ****     lv_draw_g2d_deinit();
 494:lvgl/src/lv_init.c **** #endif
 495:lvgl/src/lv_init.c **** #endif
 496:lvgl/src/lv_init.c **** 
 497:lvgl/src/lv_init.c **** #if LV_USE_DRAW_VG_LITE
 498:lvgl/src/lv_init.c ****     lv_draw_vg_lite_deinit();
 499:lvgl/src/lv_init.c **** #endif
 500:lvgl/src/lv_init.c **** 
 501:lvgl/src/lv_init.c **** #if LV_USE_DRAW_DMA2D
 502:lvgl/src/lv_init.c ****     lv_draw_dma2d_deinit();
 503:lvgl/src/lv_init.c **** #endif
 504:lvgl/src/lv_init.c **** 
 505:lvgl/src/lv_init.c **** #if LV_USE_DRAW_OPENGLES
 506:lvgl/src/lv_init.c ****     lv_draw_opengles_deinit();
 507:lvgl/src/lv_init.c **** #endif
 508:lvgl/src/lv_init.c **** 
 509:lvgl/src/lv_init.c **** #if LV_USE_DRAW_SW
 510:lvgl/src/lv_init.c ****     lv_draw_sw_deinit();
 382              		.loc 1 510 5 view .LVU111
 383 003e FFF7FEFF 		bl	lv_draw_sw_deinit
 384              	.LVL38:
 511:lvgl/src/lv_init.c **** #endif
 512:lvgl/src/lv_init.c **** 
 513:lvgl/src/lv_init.c ****     lv_draw_deinit();
 385              		.loc 1 513 5 view .LVU112
 386 0042 FFF7FEFF 		bl	lv_draw_deinit
 387              	.LVL39:
 514:lvgl/src/lv_init.c **** 
 515:lvgl/src/lv_init.c ****     lv_group_deinit();
 388              		.loc 1 515 5 view .LVU113
 389 0046 FFF7FEFF 		bl	lv_group_deinit
 390              	.LVL40:
 516:lvgl/src/lv_init.c **** 
 517:lvgl/src/lv_init.c ****     lv_anim_core_deinit();
 391              		.loc 1 517 5 view .LVU114
 392 004a FFF7FEFF 		bl	lv_anim_core_deinit
ARM GAS  /tmp/ccGQIiFw.s 			page 19


 393              	.LVL41:
 518:lvgl/src/lv_init.c **** 
 519:lvgl/src/lv_init.c ****     lv_layout_deinit();
 394              		.loc 1 519 5 view .LVU115
 395 004e FFF7FEFF 		bl	lv_layout_deinit
 396              	.LVL42:
 520:lvgl/src/lv_init.c **** 
 521:lvgl/src/lv_init.c ****     lv_timer_core_deinit();
 397              		.loc 1 521 5 view .LVU116
 398 0052 FFF7FEFF 		bl	lv_timer_core_deinit
 399              	.LVL43:
 522:lvgl/src/lv_init.c **** 
 523:lvgl/src/lv_init.c **** #if LV_USE_PROFILER && LV_USE_PROFILER_BUILTIN
 524:lvgl/src/lv_init.c ****     lv_profiler_builtin_uninit();
 525:lvgl/src/lv_init.c **** #endif
 526:lvgl/src/lv_init.c **** 
 527:lvgl/src/lv_init.c **** #if LV_USE_OBJ_ID && LV_USE_OBJ_ID_BUILTIN
 528:lvgl/src/lv_init.c ****     lv_objid_builtin_destroy();
 529:lvgl/src/lv_init.c **** #endif
 530:lvgl/src/lv_init.c **** 
 531:lvgl/src/lv_init.c **** #if LV_USE_XML
 532:lvgl/src/lv_init.c ****     lv_xml_deinit();
 533:lvgl/src/lv_init.c **** #endif
 534:lvgl/src/lv_init.c **** 
 535:lvgl/src/lv_init.c **** #if LV_USE_TRANSLATION
 536:lvgl/src/lv_init.c ****     lv_translation_deinit();
 537:lvgl/src/lv_init.c **** #endif
 538:lvgl/src/lv_init.c **** 
 539:lvgl/src/lv_init.c **** #if LV_USE_FS_FROGFS
 540:lvgl/src/lv_init.c ****     lv_fs_frogfs_deinit();
 541:lvgl/src/lv_init.c **** #endif
 542:lvgl/src/lv_init.c **** 
 543:lvgl/src/lv_init.c ****     lv_fs_deinit();
 400              		.loc 1 543 5 view .LVU117
 401 0056 FFF7FEFF 		bl	lv_fs_deinit
 402              	.LVL44:
 544:lvgl/src/lv_init.c **** 
 545:lvgl/src/lv_init.c ****     lv_mem_deinit();
 403              		.loc 1 545 5 view .LVU118
 404 005a FFF7FEFF 		bl	lv_mem_deinit
 405              	.LVL45:
 546:lvgl/src/lv_init.c **** 
 547:lvgl/src/lv_init.c ****     lv_initialized = false;
 406              		.loc 1 547 5 view .LVU119
 407              		.loc 1 547 20 is_stmt 0 view .LVU120
 408 005e 0023     		movs	r3, #0
 409 0060 2371     		strb	r3, [r4, #4]
 548:lvgl/src/lv_init.c **** 
 549:lvgl/src/lv_init.c ****     LV_LOG_INFO("lv_deinit done");
 410              		.loc 1 549 5 is_stmt 1 view .LVU121
 411              		.loc 1 549 5 view .LVU122
 412              		.loc 1 549 5 view .LVU123
 550:lvgl/src/lv_init.c **** 
 551:lvgl/src/lv_init.c **** #if LV_USE_LOG
 552:lvgl/src/lv_init.c ****     lv_log_register_print_cb(NULL);
 553:lvgl/src/lv_init.c **** #endif
 554:lvgl/src/lv_init.c **** 
ARM GAS  /tmp/ccGQIiFw.s 			page 20


 555:lvgl/src/lv_init.c **** #ifdef LV_GC_DEINIT
 556:lvgl/src/lv_init.c ****     LV_GC_DEINIT();
 557:lvgl/src/lv_init.c **** #endif
 558:lvgl/src/lv_init.c **** 
 559:lvgl/src/lv_init.c **** }
 413              		.loc 1 559 1 is_stmt 0 view .LVU124
 414 0062 10BD     		pop	{r4, pc}
 415              	.L32:
 416              		.align	2
 417              	.L31:
 418 0064 00000000 		.word	lv_global
 419              		.cfi_endproc
 420              	.LFE204:
 422              		.global	lv_global
 423              		.section	.bss.lv_global,"aw",%nobits
 424              		.align	2
 427              	lv_global:
 428 0000 00000000 		.space	516
 428      00000000 
 428      00000000 
 428      00000000 
 428      00000000 
 429              		.text
 430              	.Letext0:
 431              		.file 3 "/opt/gcc-arm-none-eabi/arm-none-eabi/include/machine/_default_types.h"
 432              		.file 4 "/opt/gcc-arm-none-eabi/arm-none-eabi/include/sys/_stdint.h"
 433              		.file 5 "/opt/gcc-arm-none-eabi/lib/gcc/arm-none-eabi/15.2.1/include/stddef.h"
 434              		.file 6 "lvgl/src/misc/../tick/../misc/lv_types.h"
 435              		.file 7 "lvgl/src/core/lv_group_private.h"
 436              		.file 8 "lvgl/src/display/lv_display_private.h"
 437              		.file 9 "lvgl/src/core/../draw/lv_draw.h"
 438              		.file 10 "lvgl/src/core/../draw/lv_draw_private.h"
 439              		.file 11 "lvgl/src/indev/lv_indev_private.h"
 440              		.file 12 "lvgl/src/misc/lv_timer_private.h"
 441              		.file 13 "lvgl/src/misc/lv_anim.h"
 442              		.file 14 "lvgl/src/draw/../misc/cache/class/../lv_cache_private.h"
 443              		.file 15 "lvgl/src/draw/lv_draw_buf_private.h"
 444              		.file 16 "lvgl/src/core/../display/../misc/lv_array.h"
 445              		.file 17 "lvgl/src/draw/lv_draw_buf.h"
 446              		.file 18 "lvgl/src/misc/../tick/lv_tick.h"
 447              		.file 19 "lvgl/src/misc/lv_ll.h"
 448              		.file 20 "lvgl/src/misc/lv_timer.h"
 449              		.file 21 "lvgl/src/misc/lv_anim_private.h"
 450              		.file 22 "lvgl/src/draw/../misc/lv_area.h"
 451              		.file 23 "lvgl/src/draw/../misc/lv_color.h"
 452              		.file 24 "lvgl/src/draw/lv_image_dsc.h"
 453              		.file 25 "lvgl/src/draw/../misc/cache/class/../../../osal/lv_os_none.h"
 454              		.file 26 "lvgl/src/core/../misc/../layouts/lv_layout.h"
 455              		.file 27 "lvgl/src/core/../display/../misc/lv_event.h"
 456              		.file 28 "lvgl/src/core/../display/lv_display.h"
 457              		.file 29 "lvgl/src/core/../indev/../core/lv_group.h"
 458              		.file 30 "lvgl/src/core/../indev/lv_indev.h"
 459              		.file 31 "lvgl/src/core/../stdlib/builtin/lv_tlsf.h"
 460              		.file 32 "lvgl/src/core/../tick/lv_tick_private.h"
 461              		.file 33 "lvgl/src/core/../draw/sw/lv_draw_sw_mask_private.h"
 462              		.file 34 "lvgl/src/core/../stdlib/builtin/lv_tlsf_private.h"
 463              		.file 35 "lvgl/src/core/../layouts/lv_layout_private.h"
ARM GAS  /tmp/ccGQIiFw.s 			page 21


 464              		.file 36 "lvgl/src/core/lv_global.h"
 465              		.file 37 "lvgl/src/draw/../misc/../stdlib/lv_mem.h"
 466              		.file 38 "lvgl/src/misc/lv_fs_private.h"
 467              		.file 39 "lvgl/src/core/../draw/sw/lv_draw_sw.h"
 468              		.file 40 "lvgl/src/core/lv_obj_style_private.h"
 469              		.file 41 "lvgl/src/core/lv_refr_private.h"
 470              		.file 42 "lvgl/src/draw/lv_image_decoder_private.h"
 471              		.file 43 "lvgl/src/themes/simple/../mono/lv_theme_mono.h"
 472              		.file 44 "lvgl/src/themes/simple/lv_theme_simple.h"
 473              		.file 45 "lvgl/src/themes/simple/../default/lv_theme_default.h"
 474              		.file 46 "lvgl/src/widgets/span/lv_span.h"
 475              		.file 47 "lvgl/src/misc/lv_math.h"
 476              		.file 48 "lvgl/src/libs/bin_decoder/lv_bin_decoder.h"
 477              		.file 49 "lvgl/src/draw/../misc/cache/class/../../../osal/lv_os_private.h"
 478              		.file 50 "lvgl/src/core/../misc/lv_style.h"
ARM GAS  /tmp/ccGQIiFw.s 			page 22

